target datalayout = "e-m:e-p270:32:32-p271:32:32-p272:64:64-i64:64-i128:128-f80:128-n8:16:32:64-S128"
target triple = "x86_64-pc-linux-gnu"

; Function Attrs: nounwind uwtable
define void @bandAddIdentity(ptr noundef %0, i64 noundef %1, i64 noundef %2) #0 {
  %4 = alloca ptr, align 8
  %5 = alloca i64, align 8
  %6 = alloca i64, align 8
  %7 = alloca i64, align 8
  store ptr %0, ptr %4, align 8, !tbaa !20
  store i64 %1, ptr %5, align 8, !tbaa !21
  store i64 %2, ptr %6, align 8, !tbaa !21
  call void @llvm.lifetime.start.p0(i64 8, ptr %7) #4
  store i64 0, ptr %7, align 8, !tbaa !21
  br label %8

8:                                                ; preds = %21, %3
  %9 = load i64, ptr %7, align 8, !tbaa !21
  %10 = load i64, ptr %5, align 8, !tbaa !21
  %11 = icmp slt i64 %9, %10
  br i1 %11, label %12, label %24

12:                                               ; preds = %8
  %13 = load ptr, ptr %4, align 8, !tbaa !20
  %14 = load i64, ptr %7, align 8, !tbaa !21
  %15 = getelementptr inbounds ptr, ptr %13, i64 %14
  %16 = load ptr, ptr %15, align 8, !tbaa !22
  %17 = load i64, ptr %6, align 8, !tbaa !21
  %18 = getelementptr inbounds double, ptr %16, i64 %17
  %19 = load double, ptr %18, align 8, !tbaa !23
  %20 = fadd double %19, 1.000000e+00
  store double %20, ptr %18, align 8, !tbaa !23
  br label %21

21:                                               ; preds = %12
  %22 = load i64, ptr %7, align 8, !tbaa !21
  %23 = add nsw i64 %22, 1
  store i64 %23, ptr %7, align 8, !tbaa !21
  br label %8, !llvm.loop !45

24:                                               ; preds = %8
  call void @llvm.lifetime.end.p0(i64 8, ptr %7) #4
  ret void
}