; Function Attrs: nofree norecurse nosync nounwind memory(readwrite, inaccessiblemem: none) uwtable
define void @bandAddIdentity(ptr noundef readonly captures(none) %0, i64 noundef %1, i64 noundef %2) local_unnamed_addr #2 {
  %4 = icmp sgt i64 %1, 0
  br i1 %4, label %.lr.ph, label %._crit_edge

.lr.ph:                                           ; preds = %3, %.lr.ph
  %.05 = phi i64 [ %10, %.lr.ph ], [ 0, %3 ]
  %5 = getelementptr inbounds nuw ptr, ptr %0, i64 %.05
  %6 = load ptr, ptr %5, align 8, !tbaa !16
  %7 = getelementptr inbounds double, ptr %6, i64 %2
  %8 = load double, ptr %7, align 8, !tbaa !17
  %9 = fadd double %8, 1.000000e+00
  store double %9, ptr %7, align 8, !tbaa !17
  %10 = add nuw nsw i64 %.05, 1
  %exitcond.not = icmp eq i64 %10, %1
  br i1 %exitcond.not, label %._crit_edge, label %.lr.ph, !llvm.loop !37

._crit_edge:                                      ; preds = %.lr.ph, %3
  ret void
}